; Function Attrs: mustprogress nofree norecurse nosync nounwind willreturn memory(read, inaccessiblemem: none) uwtable
define hidden noundef i64 @_ZNK5boost4urls6detail8path_ref4sizeEv(ptr nocapture noundef nonnull readonly align 8 dereferenceable(40) %0) local_unnamed_addr #10 align 2 {
  %2 = load ptr, ptr %0, align 8, !tbaa !43
  %.not = icmp eq ptr %2, null
  br i1 %.not, label %9, label %3

3:                                                ; preds = %1
  %4 = getelementptr inbounds i8, ptr %2, i64 48
  %5 = load i64, ptr %4, align 8, !tbaa !13
  %6 = getelementptr inbounds i8, ptr %2, i64 40
  %7 = load i64, ptr %6, align 8, !tbaa !13
  %8 = sub i64 %5, %7
  br label %12

9:                                                ; preds = %1
  %10 = getelementptr inbounds nuw i8, ptr %0, i64 16
  %11 = load i64, ptr %10, align 8, !tbaa !46
  br label %12

12:                                               ; preds = %9, %3
  %.0 = phi i64 [ %8, %3 ], [ %11, %9 ]
  ret i64 %.0
}